(dp1
S'output'
p2
S"<type 'exceptions.AttributeError'> 'module' object has no attribute 'core'"
p3
sS'layer'
p4
S'C:\\Users\\pseeling\\Documents\\web2py\\web2py\\applications\\face_ar\\controllers/train.py'
p5
sS'code'
p6
S'# -*- coding: utf-8 -*-\nimport numpy\nimport cv2\ndef index():\n    img_array = []\n    label_array = []\n    cascade = cv2.CascadeClassifier("https://raw.githubusercontent.com/opencv/opencv/master/data/haarcascades/haarcascade_frontalface_alt.xml")\n    recognizer = cv2.createLBPHFaceRecognizer()\n    for row in db(db.faces.id > 0).select():\n        rtn = row\n        img = cv2.imread(rtn.file, 0)\n        faces = face_cascade.detectMultiScale(img, 1.3, 5)\n        for (x,y,w,h) in faces:\n            img_array.append(img[y: y + h, x: x + w])\n            label_array.append(rtn.user_id)\n    recognizer.train(img_array, label_array)\n    recognizer.save("trained_recognizer.xml")\n    return response.download("trained_recognizer.xml")\n\nresponse._vars=response._caller(index)\n'
p7
sS'snapshot'
p8
(dp9
S'exception'
p10
(dp11
S'__hash__'
p12
S"<method-wrapper '__hash__' of exceptions.AttributeError object>"
p13
sS'__setattr__'
p14
S"<method-wrapper '__setattr__' of exceptions.AttributeError object>"
p15
sS'__reduce_ex__'
p16
S'<built-in method __reduce_ex__ of exceptions.AttributeError object>'
p17
sS'__getslice__'
p18
S"<method-wrapper '__getslice__' of exceptions.AttributeError object>"
p19
sS'__getitem__'
p20
S"<method-wrapper '__getitem__' of exceptions.AttributeError object>"
p21
sS'__setstate__'
p22
S'<built-in method __setstate__ of exceptions.AttributeError object>'
p23
sS'__reduce__'
p24
S'<built-in method __reduce__ of exceptions.AttributeError object>'
p25
sS'__str__'
p26
S"<method-wrapper '__str__' of exceptions.AttributeError object>"
p27
sS'__format__'
p28
S'<built-in method __format__ of exceptions.AttributeError object>'
p29
sS'__getattribute__'
p30
S"<method-wrapper '__getattribute__' of exceptions.AttributeError object>"
p31
sS'__class__'
p32
S"<type 'exceptions.AttributeError'>"
p33
sS'__unicode__'
p34
S'<built-in method __unicode__ of exceptions.AttributeError object>'
p35
sS'__delattr__'
p36
S"<method-wrapper '__delattr__' of exceptions.AttributeError object>"
p37
sS'__subclasshook__'
p38
S'<built-in method __subclasshook__ of type object>'
p39
sS'__repr__'
p40
S"<method-wrapper '__repr__' of exceptions.AttributeError object>"
p41
sS'args'
p42
S'("\'module\' object has no attribute \'core\'",)'
p43
sS'__dict__'
p44
S'{}'
p45
sS'__sizeof__'
p46
S'<built-in method __sizeof__ of exceptions.AttributeError object>'
p47
sS'__doc__'
p48
S"'Attribute not found.'"
p49
sS'__init__'
p50
S"<method-wrapper '__init__' of exceptions.AttributeError object>"
p51
sS'__new__'
p52
S'<built-in method __new__ of type object>'
p53
ssS'evalue'
p54
S"'module' object has no attribute 'core'"
p55
sS'request'
p56
cgluon.html
XML_unpickle
p57
(S's5X\x00\x00<div><table><tr><td style="font-weight:bold;vertical-align:top;">ajax</td><td style="vertical-align:top;">:</td><td><div>False</div></td></tr><tr><td style="font-weight:bold;vertical-align:top;">application</td><td style="vertical-align:top;">:</td><td><div>face_ar</div></td></tr><tr><td style="font-weight:bold;vertical-align:top;">args</td><td style="vertical-align:top;">:</td><td><div><table></table></div></td></tr><tr><td style="font-weight:bold;vertical-align:top;">cid</td><td style="vertical-align:top;">:</td><td><div>None</div></td></tr><tr><td style="font-weight:bold;vertical-align:top;">client</td><td style="vertical-align:top;">:</td><td><div>127.0.0.1</div></td></tr><tr><td style="font-weight:bold;vertical-align:top;">controller</td><td style="vertical-align:top;">:</td><td><div>train</div></td></tr><tr><td style="font-weight:bold;vertical-align:top;">cookies</td><td style="vertical-align:top;">:</td><td><div><table><tr><td style="font-weight:bold;vertical-align:top;">session_id_admin</td><td style="vertical-align:top;">:</td><td><div>127.0.0.1-a707955b-f43c-48fc-8393-d9c46dff940e<table><tr><td style="font-weight:bold;vertical-align:top;">comment</td><td style="vertical-align:top;">:</td><td><div></div></td></tr><tr><td style="font-weight:bold;vertical-align:top;">domain</td><td style="vertical-align:top;">:</td><td><div></div></td></tr><tr><td style="font-weight:bold;vertical-align:top;">expires</td><td style="vertical-align:top;">:</td><td><div></div></td></tr><tr><td style="font-weight:bold;vertical-align:top;">httponly</td><td style="vertical-align:top;">:</td><td><div></div></td></tr><tr><td style="font-weight:bold;vertical-align:top;">max-age</td><td style="vertical-align:top;">:</td><td><div></div></td></tr><tr><td style="font-weight:bold;vertical-align:top;">path</td><td style="vertical-align:top;">:</td><td><div></div></td></tr><tr><td style="font-weight:bold;vertical-align:top;">secure</td><td style="vertical-align:top;">:</td><td><div></div></td></tr><tr><td style="font-weight:bold;vertical-align:top;">version</td><td style="vertical-align:top;">:</td><td><div></div></td></tr></table></div></td></tr><tr><td style="font-weight:bold;vertical-align:top;">session_id_face_ar</td><td style="vertical-align:top;">:</td><td><div>127.0.0.1-1271be25-2a80-4f3d-bba3-bc85bc1a4370<table><tr><td style="font-weight:bold;vertical-align:top;">comment</td><td style="vertical-align:top;">:</td><td><div></div></td></tr><tr><td style="font-weight:bold;vertical-align:top;">domain</td><td style="vertical-align:top;">:</td><td><div></div></td></tr><tr><td style="font-weight:bold;vertical-align:top;">expires</td><td style="vertical-align:top;">:</td><td><div></div></td></tr><tr><td style="font-weight:bold;vertical-align:top;">httponly</td><td style="vertical-align:top;">:</td><td><div></div></td></tr><tr><td style="font-weight:bold;vertical-align:top;">max-age</td><td style="vertical-align:top;">:</td><td><div></div></td></tr><tr><td style="font-weight:bold;vertical-align:top;">path</td><td style="vertical-align:top;">:</td><td><div></div></td></tr><tr><td style="font-weight:bold;vertical-align:top;">secure</td><td style="vertical-align:top;">:</td><td><div></div></td></tr><tr><td style="font-weight:bold;vertical-align:top;">version</td><td style="vertical-align:top;">:</td><td><div></div></td></tr></table></div></td></tr></table></div></td></tr><tr><td style="font-weight:bold;vertical-align:top;">env</td><td style="vertical-align:top;">:</td><td><div><table><tr><td style="font-weight:bold;vertical-align:top;">HTTP_ACCEPT</td><td style="vertical-align:top;">:</td><td><div>text/html,application/xhtml+xml,application/xml;q=0.9,image/webp,*/*;q=0.8</div></td></tr><tr><td style="font-weight:bold;vertical-align:top;">HTTP_ACCEPT_ENCODING</td><td style="vertical-align:top;">:</td><td><div>gzip, deflate, sdch, br</div></td></tr><tr><td style="font-weight:bold;vertical-align:top;">HTTP_ACCEPT_LANGUAGE</td><td style="vertical-align:top;">:</td><td><div>en-US,en;q=0.8</div></td></tr><tr><td style="font-weight:bold;vertical-align:top;">HTTP_CACHE_CONTROL</td><td style="vertical-align:top;">:</td><td><div>max-age=0</div></td></tr><tr><td style="font-weight:bold;vertical-align:top;">HTTP_CONNECTION</td><td style="vertical-align:top;">:</td><td><div>keep-alive</div></td></tr><tr><td style="font-weight:bold;vertical-align:top;">HTTP_COOKIE</td><td style="vertical-align:top;">:</td><td><div>session_id_face_ar=127.0.0.1-1271be25-2a80-4f3d-bba3-bc85bc1a4370; session_id_admin=127.0.0.1-a707955b-f43c-48fc-8393-d9c46dff940e</div></td></tr><tr><td style="font-weight:bold;vertical-align:top;">HTTP_HOST</td><td style="vertical-align:top;">:</td><td><div>localhost:8000</div></td></tr><tr><td style="font-weight:bold;vertical-align:top;">HTTP_UPGRADE_INSECURE_REQUESTS</td><td style="vertical-align:top;">:</td><td><div>1</div></td></tr><tr><td style="font-weight:bold;vertical-align:top;">HTTP_USER_AGENT</td><td style="vertical-align:top;">:</td><td><div>Mozilla/5.0 (Windows NT 10.0; Win64; x64) AppleWebKit/537.36 (KHTML, like Gecko) Chrome/56.0.2924.87 Safari/537.36</div></td></tr><tr><td style="font-weight:bold;vertical-align:top;">PATH_INFO</td><td style="vertical-align:top;">:</td><td><div>/face_ar/train</div></td></tr><tr><td style="font-weight:bold;vertical-align:top;">QUERY_STRING</td><td style="vertical-align:top;">:</td><td><div></div></td></tr><tr><td style="font-weight:bold;vertical-align:top;">REMOTE_ADDR</td><td style="vertical-align:top;">:</td><td><div>127.0.0.1</div></td></tr><tr><td style="font-weight:bold;vertical-align:top;">REMOTE_PORT</td><td style="vertical-align:top;">:</td><td><div>54961</div></td></tr><tr><td style="font-weight:bold;vertical-align:top;">REQUEST_METHOD</td><td style="vertical-align:top;">:</td><td><div>GET</div></td></tr><tr><td style="font-weight:bold;vertical-align:top;">SCRIPT_NAME</td><td style="vertical-align:top;">:</td><td><div></div></td></tr><tr><td style="font-weight:bold;vertical-align:top;">SERVER_NAME</td><td style="vertical-align:top;">:</td><td><div>UNC-R9000BLY</div></td></tr><tr><td style="font-weight:bold;vertical-align:top;">SERVER_PORT</td><td style="vertical-align:top;">:</td><td><div>8000</div></td></tr><tr><td style="font-weight:bold;vertical-align:top;">SERVER_PROTOCOL</td><td style="vertical-align:top;">:</td><td><div>HTTP/1.1</div></td></tr><tr><td style="font-weight:bold;vertical-align:top;">SERVER_SOFTWARE</td><td style="vertical-align:top;">:</td><td><div>Rocket 1.2.6</div></td></tr><tr><td style="font-weight:bold;vertical-align:top;">app_folders</td><td style="vertical-align:top;">:</td><td><div>set([&#x27;C:\\\\Users\\\\pseeling\\\\Documents\\\\web2py\\\\web2py\\\\applications\\\\welcome\\\\&#x27;, &#x27;C:\\\\Users\\\\pseeling\\\\Documents\\\\web2py\\\\web2py\\\\applications\\\\face_ar\\\\&#x27;, &#x27;C:\\\\Users\\\\pseeling\\\\Documents\\\\web2py\\\\web2py\\\\applications\\\\admin\\\\&#x27;])</div></td></tr><tr><td style="font-weight:bold;vertical-align:top;">applications_parent</td><td style="vertical-align:top;">:</td><td><div>C:\\Users\\pseeling\\Documents\\web2py\\web2py</div></td></tr><tr><td style="font-weight:bold;vertical-align:top;">cmd_args</td><td style="vertical-align:top;">:</td><td><div><table></table></div></td></tr><tr><td style="font-weight:bold;vertical-align:top;">cmd_options</td><td style="vertical-align:top;">:</td><td><div>&lt;Values at 0x2c640d0: {&#x27;verbose&#x27;: False, &#x27;ip&#x27;: &#x27;127.0.0.1&#x27;, &#x27;debuglevel&#x27;: 30, &#x27;with_scheduler&#x27;: False, &#x27;shutdown_timeout&#x27;: 5, &#x27;taskbar&#x27;: False, &#x27;with_coverage&#x27;: False, &#x27;pid_filename&#x27;: &#x27;httpserver.pid&#x27;, &#x27;maxthreads&#x27;: None, &#x27;softcron&#x27;: False, &#x27;server_name&#x27;: &#x27;UNC-R9000BLY&#x27;, &#x27;bpython&#x27;: False, &#x27;nogui&#x27;: False, &#x27;port&#x27;: 8000, &#x27;print_errors&#x27;: False, &#x27;extcron&#x27;: False, &#x27;runcron&#x27;: False, &#x27;run_system_tests&#x27;: False, &#x27;test&#x27;: None, &#x27;folder&#x27;: &#x27;C:\\\\Users\\\\pseeling\\\\Documents\\\\web2py\\\\web2py&#x27;, &#x27;config&#x27;: &#x27;&#x27;, &#x27;minthreads&#x27;: None, &#x27;shell&#x27;: None, &#x27;run&#x27;: &#x27;&#x27;, &#x27;log_filename&#x27;: &#x27;httpserver.log&#x27;, &#x27;profiler_dir&#x27;: None, &#x27;args&#x27;: [&#x27;&#x27;], &#x27;socket_timeout&#x27;: 5, &#x27;ssl_ca_certificate&#x27;: None, &#x27;scheduler&#x27;: None, &#x27;interfaces&#x27;: None, &#x27;ssl_private_key&#x27;: &#x27;&#x27;, &#x27;gae&#x27;: None, &#x27;password&#x27;: &#x27;******&#x27;, &#x27;request_queue_size&#x27;: 5, &#x27;ssl_certificate&#x27;: &#x27;&#x27;, &#x27;cronjob&#x27;: False, &#x27;numthreads&#x27;: None, &#x27;quiet&#x27;: False, &#x27;import_models&#x27;: False, &#x27;timeout&#x27;: 10, &#x27;plain&#x27;: False, &#x27;nobanner&#x27;: False}&gt;</div></td></tr><tr><td style="font-weight:bold;vertical-align:top;">db_sessions</td><td style="vertical-align:top;">:</td><td><div>set([])</div></td></tr><tr><td style="font-weight:bold;vertical-align:top;">debugging</td><td style="vertical-align:top;">:</td><td><div>True</div></td></tr><tr><td style="font-weight:bold;vertical-align:top;">gluon_parent</td><td style="vertical-align:top;">:</td><td><div>C:\\Users\\pseeling\\Documents\\web2py\\web2py</div></td></tr><tr><td style="font-weight:bold;vertical-align:top;">http_accept</td><td style="vertical-align:top;">:</td><td><div>text/html,application/xhtml+xml,application/xml;q=0.9,image/webp,*/*;q=0.8</div></td></tr><tr><td style="font-weight:bold;vertical-align:top;">http_accept_encoding</td><td style="vertical-align:top;">:</td><td><div>gzip, deflate, sdch, br</div></td></tr><tr><td style="font-weight:bold;vertical-align:top;">http_accept_language</td><td style="vertical-align:top;">:</td><td><div>en-US,en;q=0.8</div></td></tr><tr><td style="font-weight:bold;vertical-align:top;">http_cache_control</td><td style="vertical-align:top;">:</td><td><div>max-age=0</div></td></tr><tr><td style="font-weight:bold;vertical-align:top;">http_connection</td><td style="vertical-align:top;">:</td><td><div>keep-alive</div></td></tr><tr><td style="font-weight:bold;vertical-align:top;">http_cookie</td><td style="vertical-align:top;">:</td><td><div>session_id_face_ar=127.0.0.1-1271be25-2a80-4f3d-bba3-bc85bc1a4370; session_id_admin=127.0.0.1-a707955b-f43c-48fc-8393-d9c46dff940e</div></td></tr><tr><td style="font-weight:bold;vertical-align:top;">http_host</td><td style="vertical-align:top;">:</td><td><div>localhost:8000</div></td></tr><tr><td style="font-weight:bold;vertical-align:top;">http_upgrade_insecure_requests</td><td style="vertical-align:top;">:</td><td><div>1</div></td></tr><tr><td style="font-weight:bold;vertical-align:top;">http_user_agent</td><td style="vertical-align:top;">:</td><td><div>Mozilla/5.0 (Windows NT 10.0; Win64; x64) AppleWebKit/537.36 (KHTML, like Gecko) Chrome/56.0.2924.87 Safari/537.36</div></td></tr><tr><td style="font-weight:bold;vertical-align:top;">is_jython</td><td style="vertical-align:top;">:</td><td><div>False</div></td></tr><tr><td style="font-weight:bold;vertical-align:top;">is_pypy</td><td style="vertical-align:top;">:</td><td><div>False</div></td></tr><tr><td style="font-weight:bold;vertical-align:top;">is_source</td><td style="vertical-align:top;">:</td><td><div>False</div></td></tr><tr><td style="font-weight:bold;vertical-align:top;">local_hosts</td><td style="vertical-align:top;">:</td><td><div><table><tr><td><div>152.23.54.183</div></td></tr><tr><td><div>fe80::14ba:6259:469:33ad%13</div></td></tr><tr><td><div>fe80::2469:3b85:67e8:c948%9</div></td></tr><tr><td><div>::ffff:127.0.0.1</div></td></tr><tr><td><div>::1</div></td></tr><tr><td><div>UNC-R9000BLY</div></td></tr><tr><td><div>2001:0:9d38:6abd:2469:3b85:67e8:c948</div></td></tr><tr><td><div>127.0.0.1</div></td></tr></table></div></td></tr><tr><td style="font-weight:bold;vertical-align:top;">path_info</td><td style="vertical-align:top;">:</td><td><div>/face_ar/train</div></td></tr><tr><td style="font-weight:bold;vertical-align:top;">query_string</td><td style="vertical-align:top;">:</td><td><div></div></td></tr><tr><td style="font-weight:bold;vertical-align:top;">remote_addr</td><td style="vertical-align:top;">:</td><td><div>127.0.0.1</div></td></tr><tr><td style="font-weight:bold;vertical-align:top;">remote_port</td><td style="vertical-align:top;">:</td><td><div>54961</div></td></tr><tr><td style="font-weight:bold;vertical-align:top;">request_method</td><td style="vertical-align:top;">:</td><td><div>GET</div></td></tr><tr><td style="font-weight:bold;vertical-align:top;">request_uri</td><td style="vertical-align:top;">:</td><td><div>/face_ar/train</div></td></tr><tr><td style="font-weight:bold;vertical-align:top;">script_name</td><td style="vertical-align:top;">:</td><td><div></div></td></tr><tr><td style="font-weight:bold;vertical-align:top;">server_name</td><td style="vertical-align:top;">:</td><td><div>UNC-R9000BLY</div></td></tr><tr><td style="font-weight:bold;vertical-align:top;">server_port</td><td style="vertical-align:top;">:</td><td><div>8000</div></td></tr><tr><td style="font-weight:bold;vertical-align:top;">server_protocol</td><td style="vertical-align:top;">:</td><td><div>HTTP/1.1</div></td></tr><tr><td style="font-weight:bold;vertical-align:top;">server_software</td><td style="vertical-align:top;">:</td><td><div>Rocket 1.2.6</div></td></tr><tr><td style="font-weight:bold;vertical-align:top;">web2py_path</td><td style="vertical-align:top;">:</td><td><div>C:\\Users\\pseeling\\Documents\\web2py\\web2py</div></td></tr><tr><td style="font-weight:bold;vertical-align:top;">web2py_version</td><td style="vertical-align:top;">:</td><td><div>2.14.6-stable+timestamp.2016.05.10.00.21.47</div></td></tr><tr><td style="font-weight:bold;vertical-align:top;">wsgi.errors</td><td style="vertical-align:top;">:</td><td><div>&lt;open file &#x27;&lt;stderr&gt;&#x27;, mode &#x27;w&#x27; at 0x0216D0D0&gt;</div></td></tr><tr><td style="font-weight:bold;vertical-align:top;">wsgi.file_wrapper</td><td style="vertical-align:top;">:</td><td><div>&lt;class wsgiref.util.FileWrapper at 0x025370D8&gt;</div></td></tr><tr><td style="font-weight:bold;vertical-align:top;">wsgi.input</td><td style="vertical-align:top;">:</td><td><div>&lt;socket._fileobject object at 0x08299B30&gt;</div></td></tr><tr><td style="font-weight:bold;vertical-align:top;">wsgi.multiprocess</td><td style="vertical-align:top;">:</td><td><div>False</div></td></tr><tr><td style="font-weight:bold;vertical-align:top;">wsgi.multithread</td><td style="vertical-align:top;">:</td><td><div>True</div></td></tr><tr><td style="font-weight:bold;vertical-align:top;">wsgi.run_once</td><td style="vertical-align:top;">:</td><td><div>False</div></td></tr><tr><td style="font-weight:bold;vertical-align:top;">wsgi.url_scheme</td><td style="vertical-align:top;">:</td><td><div>http</div></td></tr><tr><td style="font-weight:bold;vertical-align:top;">wsgi.version</td><td style="vertical-align:top;">:</td><td><div><table><tr><td><div>1</div></td></tr><tr><td><div>0</div></td></tr></table></div></td></tr><tr><td style="font-weight:bold;vertical-align:top;">wsgi_errors</td><td style="vertical-align:top;">:</td><td><div>&lt;open file &#x27;&lt;stderr&gt;&#x27;, mode &#x27;w&#x27; at 0x0216D0D0&gt;</div></td></tr><tr><td style="font-weight:bold;vertical-align:top;">wsgi_file_wrapper</td><td style="vertical-align:top;">:</td><td><div>&lt;class wsgiref.util.FileWrapper at 0x025370D8&gt;</div></td></tr><tr><td style="font-weight:bold;vertical-align:top;">wsgi_input</td><td style="vertical-align:top;">:</td><td><div>&lt;socket._fileobject object at 0x08299B30&gt;</div></td></tr><tr><td style="font-weight:bold;vertical-align:top;">wsgi_multiprocess</td><td style="vertical-align:top;">:</td><td><div>False</div></td></tr><tr><td style="font-weight:bold;vertical-align:top;">wsgi_multithread</td><td style="vertical-align:top;">:</td><td><div>True</div></td></tr><tr><td style="font-weight:bold;vertical-align:top;">wsgi_run_once</td><td style="vertical-align:top;">:</td><td><div>False</div></td></tr><tr><td style="font-weight:bold;vertical-align:top;">wsgi_url_scheme</td><td style="vertical-align:top;">:</td><td><div>http</div></td></tr><tr><td style="font-weight:bold;vertical-align:top;">wsgi_version</td><td style="vertical-align:top;">:</td><td><div><table><tr><td><div>1</div></td></tr><tr><td><div>0</div></td></tr></table></div></td></tr></table></div></td></tr><tr><td style="font-weight:bold;vertical-align:top;">extension</td><td style="vertical-align:top;">:</td><td><div>html</div></td></tr><tr><td style="font-weight:bold;vertical-align:top;">folder</td><td style="vertical-align:top;">:</td><td><div>C:\\Users\\pseeling\\Documents\\web2py\\web2py\\applications\\face_ar\\</div></td></tr><tr><td style="font-weight:bold;vertical-align:top;">function</td><td style="vertical-align:top;">:</td><td><div>index</div></td></tr><tr><td style="font-weight:bold;vertical-align:top;">global_settings</td><td style="vertical-align:top;">:</td><td><div><table><tr><td style="font-weight:bold;vertical-align:top;">app_folders</td><td style="vertical-align:top;">:</td><td><div>set([&#x27;C:\\\\Users\\\\pseeling\\\\Documents\\\\web2py\\\\web2py\\\\applications\\\\welcome\\\\&#x27;, &#x27;C:\\\\Users\\\\pseeling\\\\Documents\\\\web2py\\\\web2py\\\\applications\\\\face_ar\\\\&#x27;, &#x27;C:\\\\Users\\\\pseeling\\\\Documents\\\\web2py\\\\web2py\\\\applications\\\\admin\\\\&#x27;])</div></td></tr><tr><td style="font-weight:bold;vertical-align:top;">applications_parent</td><td style="vertical-align:top;">:</td><td><div>C:\\Users\\pseeling\\Documents\\web2py\\web2py</div></td></tr><tr><td style="font-weight:bold;vertical-align:top;">cmd_args</td><td style="vertical-align:top;">:</td><td><div><table></table></div></td></tr><tr><td style="font-weight:bold;vertical-align:top;">cmd_options</td><td style="vertical-align:top;">:</td><td><div>&lt;Values at 0x2c640d0: {&#x27;verbose&#x27;: False, &#x27;ip&#x27;: &#x27;127.0.0.1&#x27;, &#x27;debuglevel&#x27;: 30, &#x27;with_scheduler&#x27;: False, &#x27;shutdown_timeout&#x27;: 5, &#x27;taskbar&#x27;: False, &#x27;with_coverage&#x27;: False, &#x27;pid_filename&#x27;: &#x27;httpserver.pid&#x27;, &#x27;maxthreads&#x27;: None, &#x27;softcron&#x27;: False, &#x27;server_name&#x27;: &#x27;UNC-R9000BLY&#x27;, &#x27;bpython&#x27;: False, &#x27;nogui&#x27;: False, &#x27;port&#x27;: 8000, &#x27;print_errors&#x27;: False, &#x27;extcron&#x27;: False, &#x27;runcron&#x27;: False, &#x27;run_system_tests&#x27;: False, &#x27;test&#x27;: None, &#x27;folder&#x27;: &#x27;C:\\\\Users\\\\pseeling\\\\Documents\\\\web2py\\\\web2py&#x27;, &#x27;config&#x27;: &#x27;&#x27;, &#x27;minthreads&#x27;: None, &#x27;shell&#x27;: None, &#x27;run&#x27;: &#x27;&#x27;, &#x27;log_filename&#x27;: &#x27;httpserver.log&#x27;, &#x27;profiler_dir&#x27;: None, &#x27;args&#x27;: [&#x27;&#x27;], &#x27;socket_timeout&#x27;: 5, &#x27;ssl_ca_certificate&#x27;: None, &#x27;scheduler&#x27;: None, &#x27;interfaces&#x27;: None, &#x27;ssl_private_key&#x27;: &#x27;&#x27;, &#x27;gae&#x27;: None, &#x27;password&#x27;: &#x27;******&#x27;, &#x27;request_queue_size&#x27;: 5, &#x27;ssl_certificate&#x27;: &#x27;&#x27;, &#x27;cronjob&#x27;: False, &#x27;numthreads&#x27;: None, &#x27;quiet&#x27;: False, &#x27;import_models&#x27;: False, &#x27;timeout&#x27;: 10, &#x27;plain&#x27;: False, &#x27;nobanner&#x27;: False}&gt;</div></td></tr><tr><td style="font-weight:bold;vertical-align:top;">db_sessions</td><td style="vertical-align:top;">:</td><td><div>set([])</div></td></tr><tr><td style="font-weight:bold;vertical-align:top;">debugging</td><td style="vertical-align:top;">:</td><td><div>True</div></td></tr><tr><td style="font-weight:bold;vertical-align:top;">gluon_parent</td><td style="vertical-align:top;">:</td><td><div>C:\\Users\\pseeling\\Documents\\web2py\\web2py</div></td></tr><tr><td style="font-weight:bold;vertical-align:top;">is_jython</td><td style="vertical-align:top;">:</td><td><div>False</div></td></tr><tr><td style="font-weight:bold;vertical-align:top;">is_pypy</td><td style="vertical-align:top;">:</td><td><div>False</div></td></tr><tr><td style="font-weight:bold;vertical-align:top;">is_source</td><td style="vertical-align:top;">:</td><td><div>False</div></td></tr><tr><td style="font-weight:bold;vertical-align:top;">local_hosts</td><td style="vertical-align:top;">:</td><td><div><table><tr><td><div>152.23.54.183</div></td></tr><tr><td><div>fe80::14ba:6259:469:33ad%13</div></td></tr><tr><td><div>fe80::2469:3b85:67e8:c948%9</div></td></tr><tr><td><div>::ffff:127.0.0.1</div></td></tr><tr><td><div>::1</div></td></tr><tr><td><div>UNC-R9000BLY</div></td></tr><tr><td><div>2001:0:9d38:6abd:2469:3b85:67e8:c948</div></td></tr><tr><td><div>127.0.0.1</div></td></tr></table></div></td></tr><tr><td style="font-weight:bold;vertical-align:top;">web2py_version</td><td style="vertical-align:top;">:</td><td><div>2.14.6-stable+timestamp.2016.05.10.00.21.47</div></td></tr></table></div></td></tr><tr><td style="font-weight:bold;vertical-align:top;">is_https</td><td style="vertical-align:top;">:</td><td><div>False</div></td></tr><tr><td style="font-weight:bold;vertical-align:top;">is_local</td><td style="vertical-align:top;">:</td><td><div>True</div></td></tr><tr><td style="font-weight:bold;vertical-align:top;">is_restful</td><td style="vertical-align:top;">:</td><td><div>False</div></td></tr><tr><td style="font-weight:bold;vertical-align:top;">is_scheduler</td><td style="vertical-align:top;">:</td><td><div>False</div></td></tr><tr><td style="font-weight:bold;vertical-align:top;">is_shell</td><td style="vertical-align:top;">:</td><td><div>False</div></td></tr><tr><td style="font-weight:bold;vertical-align:top;">now</td><td style="vertical-align:top;">:</td><td><div>datetime.datetime(2017, 3, 25, 17, 8, 12, 125000)</div></td></tr><tr><td style="font-weight:bold;vertical-align:top;">raw_args</td><td style="vertical-align:top;">:</td><td><div></div></td></tr><tr><td style="font-weight:bold;vertical-align:top;">raw_extension</td><td style="vertical-align:top;">:</td><td><div>None</div></td></tr><tr><td style="font-weight:bold;vertical-align:top;">url</td><td style="vertical-align:top;">:</td><td><div>/face_ar/train</div></td></tr><tr><td style="font-weight:bold;vertical-align:top;">utcnow</td><td style="vertical-align:top;">:</td><td><div>datetime.datetime(2017, 3, 25, 21, 8, 12, 125000)</div></td></tr><tr><td style="font-weight:bold;vertical-align:top;">wsgi</td><td style="vertical-align:top;">:</td><td><div>&lt;gluon.main.LazyWSGI object at 0x07FD6F10&gt;</div></td></tr></table></div>'
tRp58
sS'frames'
p59
(lp60
(dp61
S'file'
p62
S'C:\\Users\\pseeling\\Documents\\web2py\\web2py\\gluon\\restricted.py'
p63
sS'dump'
p64
(dp65
S'environment'
p66
S"{'A': <class 'gluon.html.A'>, 'ANY_OF': <class 'gluon.validators.ANY_OF'>, 'ASSIGNJS': <function ASSIGNJS>, 'B': <class 'gluon.html.B'>, 'BEAUTIFY': <class 'gluon.html.BEAUTIFY'>, 'BODY': <class 'gluon.html.BODY'>, 'BR': <class 'gluon.html.BR'>, 'BUTTON': <class 'gluon.html.BUTTON'>, 'CAT': <class 'gluon.html.CAT'>, 'CENTER': <class 'gluon.html.CENTER'>, ...}"
p67
sS'ccode'
p68
S'<code object <module> at 082A0CC8, file "C:\\User...plications\\face_ar\\controllers/train.py", line 2>'
p69
ssS'lnum'
p70
I227
sS'lines'
p71
(dp72
I224
S'            ccode = code'
p73
sI225
S'        else:'
p74
sI226
S'            ccode = compile2(code, layer)'
p75
sI227
S'        exec ccode in environment'
p76
sI228
S'    except HTTP:'
p77
sI229
S'        raise'
p78
sI230
S'    except RestrictedError:'
p79
sI231
S'        # do not encapsulate (obfuscate) the original RestrictedError'
p80
sI222
S'    try:'
p81
sI223
S'        if isinstance(code, types.CodeType):'
p82
ssS'call'
p83
S'(code=\'# -*- coding: utf-8 -*-\\nimport numpy\\nimport cv2\\n...er.xml")\\n\\nresponse._vars=response._caller(index)\\n\', environment={\'A\': <class \'gluon.html.A\'>, \'ANY_OF\': <class \'gluon.validators.ANY_OF\'>, \'ASSIGNJS\': <function ASSIGNJS>, \'B\': <class \'gluon.html.B\'>, \'BEAUTIFY\': <class \'gluon.html.BEAUTIFY\'>, \'BODY\': <class \'gluon.html.BODY\'>, \'BR\': <class \'gluon.html.BR\'>, \'BUTTON\': <class \'gluon.html.BUTTON\'>, \'CAT\': <class \'gluon.html.CAT\'>, \'CENTER\': <class \'gluon.html.CENTER\'>, ...}, layer=r\'C:\\Users\\pseeling\\Documents\\web2py\\web2py\\applications\\face_ar\\controllers/train.py\')'
p84
sS'func'
p85
S'restricted'
p86
sa(dp87
g62
S'C:\\Users\\pseeling\\Documents\\web2py\\web2py\\applications\\face_ar\\controllers\\train.py'
p88
sg64
(dp89
S'numpy'
p90
S'undefined'
p91
ssg70
I2
sg71
(dp92
I2
S'import numpy'
p93
sI3
S'import cv2'
p94
sI4
S'def index():'
p95
sI5
S'    img_array = []'
p96
sI6
S'    label_array = []'
p97
sI7
S'    cascade = cv2.CascadeClassifier("https://raw.githubusercontent.com/opencv/opencv/master/data/haarcascades/haarcascade_frontalface_alt.xml")'
p98
sI8
S'    recognizer = cv2.createLBPHFaceRecognizer()'
p99
sI9
S'    for row in db(db.faces.id > 0).select():'
p100
sI10
S'        rtn = row'
p101
sI11
S'        img = cv2.imread(rtn.file, 0)'
p102
ssg83
S'()'
p103
sg85
S'<module>'
p104
sa(dp105
g62
S'C:\\Users\\pseeling\\Documents\\web2py\\web2py\\gluon\\custom_import.py'
p106
sg64
(dp107
S'itemname'
p108
S"'numpy'"
p109
sS'globals'
p110
S"{'A': <class 'gluon.html.A'>, 'ANY_OF': <class 'gluon.validators.ANY_OF'>, 'ASSIGNJS': <function ASSIGNJS>, 'B': <class 'gluon.html.B'>, 'BEAUTIFY': <class 'gluon.html.BEAUTIFY'>, 'BODY': <class 'gluon.html.BODY'>, 'BR': <class 'gluon.html.BR'>, 'BUTTON': <class 'gluon.html.BUTTON'>, 'CAT': <class 'gluon.html.CAT'>, 'CENTER': <class 'gluon.html.CENTER'>, ...}"
p111
sS'modules_prefix'
p112
S"'applications.face_ar.modules'"
p113
sS'locals'
p114
S"{'A': <class 'gluon.html.A'>, 'ANY_OF': <class 'gluon.validators.ANY_OF'>, 'ASSIGNJS': <function ASSIGNJS>, 'B': <class 'gluon.html.B'>, 'BEAUTIFY': <class 'gluon.html.BEAUTIFY'>, 'BODY': <class 'gluon.html.BODY'>, 'BR': <class 'gluon.html.BR'>, 'BUTTON': <class 'gluon.html.BUTTON'>, 'CAT': <class 'gluon.html.CAT'>, 'CENTER': <class 'gluon.html.CENTER'>, ...}"
p115
sS'level'
p116
S'-1'
p117
ssg70
I85
sg71
(dp118
I80
S'                if not fromlist:'
p119
sI81
S'                    # import like "import x" or "import x.y"'
p120
sI82
S'                    result = None'
p121
sI83
S'                    for itemname in name.split("."):'
p122
sI84
S'                        new_mod = base_importer('
p123
sI85
S'                            modules_prefix, globals, locals, [itemname], level)'
p124
sI86
S'                        try:'
p125
sI87
S"                            result = result or sys.modules[modules_prefix+'.'+itemname]"
p126
sI88
S'                        except KeyError, e:'
p127
sI89
S"                            raise ImportError, 'Cannot import module %s' % str(e)"
p128
ssg83
S"(name='numpy', globals={'A': <class 'gluon.html.A'>, 'ANY_OF': <class 'gluon.validators.ANY_OF'>, 'ASSIGNJS': <function ASSIGNJS>, 'B': <class 'gluon.html.B'>, 'BEAUTIFY': <class 'gluon.html.BEAUTIFY'>, 'BODY': <class 'gluon.html.BODY'>, 'BR': <class 'gluon.html.BR'>, 'BUTTON': <class 'gluon.html.BUTTON'>, 'CAT': <class 'gluon.html.CAT'>, 'CENTER': <class 'gluon.html.CENTER'>, ...}, locals={'A': <class 'gluon.html.A'>, 'ANY_OF': <class 'gluon.validators.ANY_OF'>, 'ASSIGNJS': <function ASSIGNJS>, 'B': <class 'gluon.html.B'>, 'BEAUTIFY': <class 'gluon.html.BEAUTIFY'>, 'BODY': <class 'gluon.html.BODY'>, 'BR': <class 'gluon.html.BR'>, 'BUTTON': <class 'gluon.html.BUTTON'>, 'CAT': <class 'gluon.html.CAT'>, 'CENTER': <class 'gluon.html.CENTER'>, ...}, fromlist=[], level=-1)"
p129
sg85
S'custom_importer'
p130
sa(dp131
g62
S'C:\\Users\\pseeling\\Documents\\web2py\\web2py\\applications\\face_ar\\modules\\numpy\\__init__.py'
p132
sg64
(dp133
S'add_newdocs'
p134
g91
ssg70
I142
sg71
(dp135
I137
S''
sI138
S'    def pkgload(*packages, **options):'
p136
sI139
S'        loader = PackageLoader(infunc=True)'
p137
sI140
S'        return loader(*packages, **options)'
p138
sI141
S''
sI142
S'    from . import add_newdocs'
p139
sI143
S"    __all__ = ['add_newdocs',"
p140
sI144
S"               'ModuleDeprecationWarning',"
p141
sI145
S"               'VisibleDeprecationWarning']"
p142
sI146
S''
ssg83
S'()'
p143
sg85
g104
sa(dp144
g62
S'C:\\Users\\pseeling\\Documents\\web2py\\web2py\\gluon\\custom_import.py'
p145
sg64
(dp146
S'fromlist'
p147
S"('add_newdocs',)"
p148
sS'global NATIVE_IMPORTER'
p149
S'<built-in function __import__>'
p150
sS'level'
p151
S'1'
sS'globals'
p152
S"{'ModuleDeprecationWarning': <class 'applications.face_ar.modules.numpy._globals.ModuleDeprecationWarning'>, 'PackageLoader': <class 'applications.face_ar.modules.numpy._import_tools.PackageLoader'>, 'VisibleDeprecationWarning': <class 'applications.face_ar.modules.numpy._globals.VisibleDeprecationWarning'>, '_NoValue': <class applications.face_ar.modules.numpy._globals._NoValue>, '__NUMPY_SETUP__': False, '__builtins__': {'ArithmeticError': <type 'exceptions.ArithmeticError'>, 'AssertionError': <type 'exceptions.AssertionError'>, 'AttributeError': <type 'exceptions.AttributeError'>, 'BaseException': <type 'exceptions.BaseException'>, 'BufferError': <type 'exceptions.BufferError'>, 'BytesWarning': <type 'exceptions.BytesWarning'>, 'DeprecationWarning': <type 'exceptions.DeprecationWarning'>, 'EOFError': <type 'exceptions.EOFError'>, 'Ellipsis': Ellipsis, 'EnvironmentError': <type 'exceptions.EnvironmentError'>, ...}, '__config__': <module 'applications.face_ar.modules.numpy.__co...plications\\face_ar\\modules\\numpy\\__config__.pyc'>, '__doc__': '\\nNumPy\\n=====\\n\\nProvides\\n  1. An array object of a...rt()``.\\nExceptions to this rule are documented.\\n\\n', '__file__': r'applications\\face_ar\\modules\\numpy\\__init__.pyc', '__git_revision__': '11f77c8b19dae99981910695a806cbf4def67e24', ...}"
p153
sS'locals'
p154
S"{'ModuleDeprecationWarning': <class 'applications.face_ar.modules.numpy._globals.ModuleDeprecationWarning'>, 'PackageLoader': <class 'applications.face_ar.modules.numpy._import_tools.PackageLoader'>, 'VisibleDeprecationWarning': <class 'applications.face_ar.modules.numpy._globals.VisibleDeprecationWarning'>, '_NoValue': <class applications.face_ar.modules.numpy._globals._NoValue>, '__NUMPY_SETUP__': False, '__builtins__': {'ArithmeticError': <type 'exceptions.ArithmeticError'>, 'AssertionError': <type 'exceptions.AssertionError'>, 'AttributeError': <type 'exceptions.AttributeError'>, 'BaseException': <type 'exceptions.BaseException'>, 'BufferError': <type 'exceptions.BufferError'>, 'BytesWarning': <type 'exceptions.BytesWarning'>, 'DeprecationWarning': <type 'exceptions.DeprecationWarning'>, 'EOFError': <type 'exceptions.EOFError'>, 'Ellipsis': Ellipsis, 'EnvironmentError': <type 'exceptions.EnvironmentError'>, ...}, '__config__': <module 'applications.face_ar.modules.numpy.__co...plications\\face_ar\\modules\\numpy\\__config__.pyc'>, '__doc__': '\\nNumPy\\n=====\\n\\nProvides\\n  1. An array object of a...rt()``.\\nExceptions to this rule are documented.\\n\\n', '__file__': r'applications\\face_ar\\modules\\numpy\\__init__.pyc', '__git_revision__': '11f77c8b19dae99981910695a806cbf4def67e24', ...}"
p155
sS'name'
p156
S"''"
p157
ssg70
I108
sg71
(dp158
I103
S'            raise  # there is an error in the module'
p159
sI104
S'        finally:'
p160
sI105
S'            if import_tb:'
p161
sI106
S'                import_tb = None'
p162
sI107
S''
sI108
S'    return NATIVE_IMPORTER(name, globals, locals, fromlist, level)'
p163
sI109
S''
sI110
S''
sI111
S'class TrackImporter(object):'
p164
sI112
S'    """'
p165
ssg83
S"(name='', globals={'ModuleDeprecationWarning': <class 'applications.face_ar.modules.numpy._globals.ModuleDeprecationWarning'>, 'PackageLoader': <class 'applications.face_ar.modules.numpy._import_tools.PackageLoader'>, 'VisibleDeprecationWarning': <class 'applications.face_ar.modules.numpy._globals.VisibleDeprecationWarning'>, '_NoValue': <class applications.face_ar.modules.numpy._globals._NoValue>, '__NUMPY_SETUP__': False, '__builtins__': {'ArithmeticError': <type 'exceptions.ArithmeticError'>, 'AssertionError': <type 'exceptions.AssertionError'>, 'AttributeError': <type 'exceptions.AttributeError'>, 'BaseException': <type 'exceptions.BaseException'>, 'BufferError': <type 'exceptions.BufferError'>, 'BytesWarning': <type 'exceptions.BytesWarning'>, 'DeprecationWarning': <type 'exceptions.DeprecationWarning'>, 'EOFError': <type 'exceptions.EOFError'>, 'Ellipsis': Ellipsis, 'EnvironmentError': <type 'exceptions.EnvironmentError'>, ...}, '__config__': <module 'applications.face_ar.modules.numpy.__co...plications\\face_ar\\modules\\numpy\\__config__.pyc'>, '__doc__': '\\nNumPy\\n=====\\n\\nProvides\\n  1. An array object of a...rt()``.\\nExceptions to this rule are documented.\\n\\n', '__file__': r'applications\\face_ar\\modules\\numpy\\__init__.pyc', '__git_revision__': '11f77c8b19dae99981910695a806cbf4def67e24', ...}, locals={'ModuleDeprecationWarning': <class 'applications.face_ar.modules.numpy._globals.ModuleDeprecationWarning'>, 'PackageLoader': <class 'applications.face_ar.modules.numpy._import_tools.PackageLoader'>, 'VisibleDeprecationWarning': <class 'applications.face_ar.modules.numpy._globals.VisibleDeprecationWarning'>, '_NoValue': <class applications.face_ar.modules.numpy._globals._NoValue>, '__NUMPY_SETUP__': False, '__builtins__': {'ArithmeticError': <type 'exceptions.ArithmeticError'>, 'AssertionError': <type 'exceptions.AssertionError'>, 'AttributeError': <type 'exceptions.AttributeError'>, 'BaseException': <type 'exceptions.BaseException'>, 'BufferError': <type 'exceptions.BufferError'>, 'BytesWarning': <type 'exceptions.BytesWarning'>, 'DeprecationWarning': <type 'exceptions.DeprecationWarning'>, 'EOFError': <type 'exceptions.EOFError'>, 'Ellipsis': Ellipsis, 'EnvironmentError': <type 'exceptions.EnvironmentError'>, ...}, '__config__': <module 'applications.face_ar.modules.numpy.__co...plications\\face_ar\\modules\\numpy\\__config__.pyc'>, '__doc__': '\\nNumPy\\n=====\\n\\nProvides\\n  1. An array object of a...rt()``.\\nExceptions to this rule are documented.\\n\\n', '__file__': r'applications\\face_ar\\modules\\numpy\\__init__.pyc', '__git_revision__': '11f77c8b19dae99981910695a806cbf4def67e24', ...}, fromlist=('add_newdocs',), level=1)"
p166
sg85
g130
sa(dp167
g62
S'C:\\Users\\pseeling\\Documents\\web2py\\web2py\\applications\\face_ar\\modules\\numpy\\add_newdocs.py'
p168
sg64
(dp169
S'numpy'
p170
g91
sS'add_newdoc'
p171
g91
ssg70
I13
sg71
(dp172
I8
S'      core/fromnumeric.py, core/defmatrix.py up-to-date.'
p173
sI9
S''
sI10
S'"""'
p174
sI11
S'from __future__ import division, absolute_import, print_function'
p175
sI12
S''
sI13
S'from numpy.lib import add_newdoc'
p176
sI14
S''
sI15
S'###############################################################################'
p177
sI16
S'#'
sI17
S'# flatiter'
p178
ssg83
S'()'
p179
sg85
g104
sa(dp180
g62
S'C:\\Users\\pseeling\\Documents\\web2py\\web2py\\gluon\\custom_import.py'
p181
sg64
(dp182
S'fromlist'
p183
S"('add_newdoc',)"
p184
sS'level'
p185
S'0'
sS'base_importer'
p186
S'<built-in function __import__>'
p187
sS'globals'
p188
S"{'__builtins__': {'ArithmeticError': <type 'exceptions.ArithmeticError'>, 'AssertionError': <type 'exceptions.AssertionError'>, 'AttributeError': <type 'exceptions.AttributeError'>, 'BaseException': <type 'exceptions.BaseException'>, 'BufferError': <type 'exceptions.BufferError'>, 'BytesWarning': <type 'exceptions.BytesWarning'>, 'DeprecationWarning': <type 'exceptions.DeprecationWarning'>, 'EOFError': <type 'exceptions.EOFError'>, 'Ellipsis': Ellipsis, 'EnvironmentError': <type 'exceptions.EnvironmentError'>, ...}, '__doc__': None, '__file__': None, '__name__': None, '__package__': None, 'absolute_import': None, 'division': None, 'print_function': None}"
p189
sS'pname'
p190
S"'applications.face_ar.modules.numpy.lib'"
p191
sS'locals'
p192
S"{'__builtins__': {'ArithmeticError': <type 'exceptions.ArithmeticError'>, 'AssertionError': <type 'exceptions.AssertionError'>, 'AttributeError': <type 'exceptions.AttributeError'>, 'BaseException': <type 'exceptions.BaseException'>, 'BufferError': <type 'exceptions.BufferError'>, 'BytesWarning': <type 'exceptions.BytesWarning'>, 'DeprecationWarning': <type 'exceptions.DeprecationWarning'>, 'EOFError': <type 'exceptions.EOFError'>, 'Ellipsis': Ellipsis, 'EnvironmentError': <type 'exceptions.EnvironmentError'>, ...}, '__doc__': None, '__file__': None, '__name__': None, '__package__': None, 'absolute_import': None, 'division': None, 'print_function': None}"
p193
ssg70
I95
sg71
(dp194
I96
S'        except ImportError, e1:'
p195
sI97
S'            import_tb = sys.exc_info()[2]'
p196
sI98
S'            try:'
p197
sI99
S'                return NATIVE_IMPORTER(name, globals, locals, fromlist, level)'
p198
sI90
S'                        modules_prefix += "." + itemname'
p199
sI91
S'                    return result'
p200
sI92
S'                else:'
p201
sI93
S'                    # import like "from x import a, b, ..."'
p202
sI94
S'                    pname = modules_prefix + "." + name'
p203
sI95
S'                    return base_importer(pname, globals, locals, fromlist, level)'
p204
ssg83
S"(name='numpy.lib', globals={'__builtins__': {'ArithmeticError': <type 'exceptions.ArithmeticError'>, 'AssertionError': <type 'exceptions.AssertionError'>, 'AttributeError': <type 'exceptions.AttributeError'>, 'BaseException': <type 'exceptions.BaseException'>, 'BufferError': <type 'exceptions.BufferError'>, 'BytesWarning': <type 'exceptions.BytesWarning'>, 'DeprecationWarning': <type 'exceptions.DeprecationWarning'>, 'EOFError': <type 'exceptions.EOFError'>, 'Ellipsis': Ellipsis, 'EnvironmentError': <type 'exceptions.EnvironmentError'>, ...}, '__doc__': None, '__file__': None, '__name__': None, '__package__': None, 'absolute_import': None, 'division': None, 'print_function': None}, locals={'__builtins__': {'ArithmeticError': <type 'exceptions.ArithmeticError'>, 'AssertionError': <type 'exceptions.AssertionError'>, 'AttributeError': <type 'exceptions.AttributeError'>, 'BaseException': <type 'exceptions.BaseException'>, 'BufferError': <type 'exceptions.BufferError'>, 'BytesWarning': <type 'exceptions.BytesWarning'>, 'DeprecationWarning': <type 'exceptions.DeprecationWarning'>, 'EOFError': <type 'exceptions.EOFError'>, 'Ellipsis': Ellipsis, 'EnvironmentError': <type 'exceptions.EnvironmentError'>, ...}, '__doc__': None, '__file__': None, '__name__': None, '__package__': None, 'absolute_import': None, 'division': None, 'print_function': None}, fromlist=('add_newdoc',), level=0)"
p205
sg85
g130
sa(dp206
g62
S'C:\\Users\\pseeling\\Documents\\web2py\\web2py\\applications\\face_ar\\modules\\numpy\\lib\\__init__.py'
p207
sg64
(dp208
S'type_check'
p209
g91
ssg70
I4
sg71
(dp210
I2
S'from numpy.version import version as __version__'
p211
sI3
S''
sI4
S'from type_check import *'
p212
sI5
S'from index_tricks import *'
p213
sI6
S'from function_base import *'
p214
sI7
S'from shape_base import *'
p215
sI8
S'from stride_tricks import *'
p216
sI9
S'from twodim_base import *'
p217
sI10
S'from ufunclike import *'
p218
sI11
S''
ssg83
S'()'
p219
sg85
g104
sa(dp220
g62
S'C:\\Users\\pseeling\\Documents\\web2py\\web2py\\gluon\\custom_import.py'
p221
sg64
(dp222
S'fromlist'
p223
S"('*',)"
p224
sS'global NATIVE_IMPORTER'
p225
S'<built-in function __import__>'
p226
sS'level'
p227
S'-1'
p228
sS'globals'
p229
S"{'__builtins__': {'ArithmeticError': <type 'exceptions.ArithmeticError'>, 'AssertionError': <type 'exceptions.AssertionError'>, 'AttributeError': <type 'exceptions.AttributeError'>, 'BaseException': <type 'exceptions.BaseException'>, 'BufferError': <type 'exceptions.BufferError'>, 'BytesWarning': <type 'exceptions.BytesWarning'>, 'DeprecationWarning': <type 'exceptions.DeprecationWarning'>, 'EOFError': <type 'exceptions.EOFError'>, 'Ellipsis': Ellipsis, 'EnvironmentError': <type 'exceptions.EnvironmentError'>, ...}, '__doc__': None, '__file__': None, '__name__': None, '__package__': None, '__path__': None, '__version__': None}"
p230
sS'locals'
p231
S"{'__builtins__': {'ArithmeticError': <type 'exceptions.ArithmeticError'>, 'AssertionError': <type 'exceptions.AssertionError'>, 'AttributeError': <type 'exceptions.AttributeError'>, 'BaseException': <type 'exceptions.BaseException'>, 'BufferError': <type 'exceptions.BufferError'>, 'BytesWarning': <type 'exceptions.BytesWarning'>, 'DeprecationWarning': <type 'exceptions.DeprecationWarning'>, 'EOFError': <type 'exceptions.EOFError'>, 'Ellipsis': Ellipsis, 'EnvironmentError': <type 'exceptions.EnvironmentError'>, ...}, '__doc__': None, '__file__': None, '__name__': None, '__package__': None, '__path__': None, '__version__': None}"
p232
sS'oname'
p233
S"'type_check'"
p234
ssg70
I74
sg71
(dp235
I69
S'            and isinstance(globals, dict):'
p236
sI70
S'        import_tb = None'
p237
sI71
S'        try:'
p238
sI72
S'            try:'
p239
sI73
S"                oname = name if not name.startswith('.') else '.'+name"
p240
sI74
S'                return NATIVE_IMPORTER(oname, globals, locals, fromlist, level)'
p241
sI75
S'            except ImportError:'
p242
sI76
S'                items = current.request.folder.split(os.path.sep)'
p243
sI77
S'                if not items[-1]:'
p244
sI78
S'                    items = items[:-1]'
p245
ssg83
S"(name='type_check', globals={'__builtins__': {'ArithmeticError': <type 'exceptions.ArithmeticError'>, 'AssertionError': <type 'exceptions.AssertionError'>, 'AttributeError': <type 'exceptions.AttributeError'>, 'BaseException': <type 'exceptions.BaseException'>, 'BufferError': <type 'exceptions.BufferError'>, 'BytesWarning': <type 'exceptions.BytesWarning'>, 'DeprecationWarning': <type 'exceptions.DeprecationWarning'>, 'EOFError': <type 'exceptions.EOFError'>, 'Ellipsis': Ellipsis, 'EnvironmentError': <type 'exceptions.EnvironmentError'>, ...}, '__doc__': None, '__file__': None, '__name__': None, '__package__': None, '__path__': None, '__version__': None}, locals={'__builtins__': {'ArithmeticError': <type 'exceptions.ArithmeticError'>, 'AssertionError': <type 'exceptions.AssertionError'>, 'AttributeError': <type 'exceptions.AttributeError'>, 'BaseException': <type 'exceptions.BaseException'>, 'BufferError': <type 'exceptions.BufferError'>, 'BytesWarning': <type 'exceptions.BytesWarning'>, 'DeprecationWarning': <type 'exceptions.DeprecationWarning'>, 'EOFError': <type 'exceptions.EOFError'>, 'Ellipsis': Ellipsis, 'EnvironmentError': <type 'exceptions.EnvironmentError'>, ...}, '__doc__': None, '__file__': None, '__name__': None, '__package__': None, '__path__': None, '__version__': None}, fromlist=('*',), level=-1)"
p246
sg85
g130
sa(dp247
g62
S'C:\\Users\\pseeling\\Documents\\web2py\\web2py\\applications\\face_ar\\modules\\numpy\\lib\\type_check.py'
p248
sg64
(dp249
S'_nx'
p250
g91
sS'numpy'
p251
g91
ssg70
I8
sg71
(dp252
I3
S"__all__ = ['iscomplexobj','isrealobj','imag','iscomplex',"
p253
sI4
S"           'isreal','nan_to_num','real','real_if_close',"
p254
sI5
S"           'typename','asfarray','mintypecode','asscalar',"
p255
sI6
S"           'common_type']"
p256
sI7
S''
sI8
S'import numpy.core.numeric as _nx'
p257
sI9
S'from numpy.core.numeric import asarray, asanyarray, array, isnan, \\'
p258
sI10
S'                obj2sctype, zeros'
p259
sI11
S'from ufunclike import isneginf, isposinf'
p260
sI12
S''
ssg83
S'()'
p261
sg85
g104
sa(dp262
g62
S'C:\\Users\\pseeling\\Documents\\web2py\\web2py\\gluon\\custom_import.py'
p263
sg64
(dp264
S'itemname'
p265
S"'core'"
p266
sS'globals'
p267
S"{'__all__': None, '__builtins__': {'ArithmeticError': <type 'exceptions.ArithmeticError'>, 'AssertionError': <type 'exceptions.AssertionError'>, 'AttributeError': <type 'exceptions.AttributeError'>, 'BaseException': <type 'exceptions.BaseException'>, 'BufferError': <type 'exceptions.BufferError'>, 'BytesWarning': <type 'exceptions.BytesWarning'>, 'DeprecationWarning': <type 'exceptions.DeprecationWarning'>, 'EOFError': <type 'exceptions.EOFError'>, 'Ellipsis': Ellipsis, 'EnvironmentError': <type 'exceptions.EnvironmentError'>, ...}, '__doc__': None, '__file__': None, '__name__': None, '__package__': None}"
p268
sS'modules_prefix'
p269
S"'applications.face_ar.modules.numpy'"
p270
sS'locals'
p271
S"{'__all__': None, '__builtins__': {'ArithmeticError': <type 'exceptions.ArithmeticError'>, 'AssertionError': <type 'exceptions.AssertionError'>, 'AttributeError': <type 'exceptions.AttributeError'>, 'BaseException': <type 'exceptions.BaseException'>, 'BufferError': <type 'exceptions.BufferError'>, 'BytesWarning': <type 'exceptions.BytesWarning'>, 'DeprecationWarning': <type 'exceptions.DeprecationWarning'>, 'EOFError': <type 'exceptions.EOFError'>, 'Ellipsis': Ellipsis, 'EnvironmentError': <type 'exceptions.EnvironmentError'>, ...}, '__doc__': None, '__file__': None, '__name__': None, '__package__': None}"
p272
sS'level'
p273
S'-1'
p274
ssg70
I85
sg71
(dp275
I80
S'                if not fromlist:'
p276
sI81
S'                    # import like "import x" or "import x.y"'
p277
sI82
S'                    result = None'
p278
sI83
S'                    for itemname in name.split("."):'
p279
sI84
S'                        new_mod = base_importer('
p280
sI85
S'                            modules_prefix, globals, locals, [itemname], level)'
p281
sI86
S'                        try:'
p282
sI87
S"                            result = result or sys.modules[modules_prefix+'.'+itemname]"
p283
sI88
S'                        except KeyError, e:'
p284
sI89
S"                            raise ImportError, 'Cannot import module %s' % str(e)"
p285
ssg83
S"(name='numpy.core.numeric', globals={'__all__': None, '__builtins__': {'ArithmeticError': <type 'exceptions.ArithmeticError'>, 'AssertionError': <type 'exceptions.AssertionError'>, 'AttributeError': <type 'exceptions.AttributeError'>, 'BaseException': <type 'exceptions.BaseException'>, 'BufferError': <type 'exceptions.BufferError'>, 'BytesWarning': <type 'exceptions.BytesWarning'>, 'DeprecationWarning': <type 'exceptions.DeprecationWarning'>, 'EOFError': <type 'exceptions.EOFError'>, 'Ellipsis': Ellipsis, 'EnvironmentError': <type 'exceptions.EnvironmentError'>, ...}, '__doc__': None, '__file__': None, '__name__': None, '__package__': None}, locals={'__all__': None, '__builtins__': {'ArithmeticError': <type 'exceptions.ArithmeticError'>, 'AssertionError': <type 'exceptions.AssertionError'>, 'AttributeError': <type 'exceptions.AttributeError'>, 'BaseException': <type 'exceptions.BaseException'>, 'BufferError': <type 'exceptions.BufferError'>, 'BytesWarning': <type 'exceptions.BytesWarning'>, 'DeprecationWarning': <type 'exceptions.DeprecationWarning'>, 'EOFError': <type 'exceptions.EOFError'>, 'Ellipsis': Ellipsis, 'EnvironmentError': <type 'exceptions.EnvironmentError'>, ...}, '__doc__': None, '__file__': None, '__name__': None, '__package__': None}, fromlist=[], level=-1)"
p286
sg85
g130
sa(dp287
g62
S'C:\\Users\\pseeling\\Documents\\web2py\\web2py\\applications\\face_ar\\modules\\numpy\\core\\__init__.py'
p288
sg64
(dp289
S'version'
p290
g91
sS'numpy'
p291
g91
sS'__version__'
p292
g91
ssg70
I3
sg71
(dp293
I2
S'from info import __doc__'
p294
sI3
S'from numpy.version import version as __version__'
p295
sI4
S''
sI5
S'import multiarray'
p296
sI6
S'import umath'
p297
sI7
S'import _internal # for freeze programs'
p298
sI8
S'import numerictypes as nt'
p299
sI9
S'multiarray.set_typeDict(nt.sctypeDict)'
p300
sI10
S'import numeric'
p301
sI11
S'from numeric import *'
p302
ssg83
S'()'
p303
sg85
g104
sa(dp304
g62
S'C:\\Users\\pseeling\\Documents\\web2py\\web2py\\gluon\\custom_import.py'
p305
sg64
(dp306
S'fromlist'
p307
S"('version',)"
p308
sS'global NATIVE_IMPORTER'
p309
S'<built-in function __import__>'
p310
sS'level'
p311
S'-1'
p312
sS'globals'
p313
S"{'__builtins__': {'ArithmeticError': <type 'exceptions.ArithmeticError'>, 'AssertionError': <type 'exceptions.AssertionError'>, 'AttributeError': <type 'exceptions.AttributeError'>, 'BaseException': <type 'exceptions.BaseException'>, 'BufferError': <type 'exceptions.BufferError'>, 'BytesWarning': <type 'exceptions.BytesWarning'>, 'DeprecationWarning': <type 'exceptions.DeprecationWarning'>, 'EOFError': <type 'exceptions.EOFError'>, 'Ellipsis': Ellipsis, 'EnvironmentError': <type 'exceptions.EnvironmentError'>, ...}, '__doc__': None, '__file__': None, '__name__': None, '__package__': None, '__path__': None}"
p314
sS'locals'
p315
S"{'__builtins__': {'ArithmeticError': <type 'exceptions.ArithmeticError'>, 'AssertionError': <type 'exceptions.AssertionError'>, 'AttributeError': <type 'exceptions.AttributeError'>, 'BaseException': <type 'exceptions.BaseException'>, 'BufferError': <type 'exceptions.BufferError'>, 'BytesWarning': <type 'exceptions.BytesWarning'>, 'DeprecationWarning': <type 'exceptions.DeprecationWarning'>, 'EOFError': <type 'exceptions.EOFError'>, 'Ellipsis': Ellipsis, 'EnvironmentError': <type 'exceptions.EnvironmentError'>, ...}, '__doc__': None, '__file__': None, '__name__': None, '__package__': None, '__path__': None}"
p316
sS'oname'
p317
S"'numpy.version'"
p318
ssg70
I74
sg71
(dp319
I69
S'            and isinstance(globals, dict):'
p320
sI70
S'        import_tb = None'
p321
sI71
S'        try:'
p322
sI72
S'            try:'
p323
sI73
S"                oname = name if not name.startswith('.') else '.'+name"
p324
sI74
S'                return NATIVE_IMPORTER(oname, globals, locals, fromlist, level)'
p325
sI75
S'            except ImportError:'
p326
sI76
S'                items = current.request.folder.split(os.path.sep)'
p327
sI77
S'                if not items[-1]:'
p328
sI78
S'                    items = items[:-1]'
p329
ssg83
S"(name='numpy.version', globals={'__builtins__': {'ArithmeticError': <type 'exceptions.ArithmeticError'>, 'AssertionError': <type 'exceptions.AssertionError'>, 'AttributeError': <type 'exceptions.AttributeError'>, 'BaseException': <type 'exceptions.BaseException'>, 'BufferError': <type 'exceptions.BufferError'>, 'BytesWarning': <type 'exceptions.BytesWarning'>, 'DeprecationWarning': <type 'exceptions.DeprecationWarning'>, 'EOFError': <type 'exceptions.EOFError'>, 'Ellipsis': Ellipsis, 'EnvironmentError': <type 'exceptions.EnvironmentError'>, ...}, '__doc__': None, '__file__': None, '__name__': None, '__package__': None, '__path__': None}, locals={'__builtins__': {'ArithmeticError': <type 'exceptions.ArithmeticError'>, 'AssertionError': <type 'exceptions.AssertionError'>, 'AttributeError': <type 'exceptions.AttributeError'>, 'BaseException': <type 'exceptions.BaseException'>, 'BufferError': <type 'exceptions.BufferError'>, 'BytesWarning': <type 'exceptions.BytesWarning'>, 'DeprecationWarning': <type 'exceptions.DeprecationWarning'>, 'EOFError': <type 'exceptions.EOFError'>, 'Ellipsis': Ellipsis, 'EnvironmentError': <type 'exceptions.EnvironmentError'>, ...}, '__doc__': None, '__file__': None, '__name__': None, '__package__': None, '__path__': None}, fromlist=('version',), level=-1)"
p330
sg85
g130
sa(dp331
g62
S'C:\\Python27\\lib\\site-packages\\numpy\\__init__.py'
p332
sg64
(dp333
S'add_newdocs'
p334
g91
ssg70
I142
sg71
(dp335
I137
S''
sI138
S'    def pkgload(*packages, **options):'
p336
sI139
S'        loader = PackageLoader(infunc=True)'
p337
sI140
S'        return loader(*packages, **options)'
p338
sI141
S''
sI142
S'    from . import add_newdocs'
p339
sI143
S"    __all__ = ['add_newdocs',"
p340
sI144
S"               'ModuleDeprecationWarning',"
p341
sI145
S"               'VisibleDeprecationWarning']"
p342
sI146
S''
ssg83
S'()'
p343
sg85
g104
sa(dp344
g62
S'C:\\Users\\pseeling\\Documents\\web2py\\web2py\\gluon\\custom_import.py'
p345
sg64
(dp346
S'fromlist'
p347
S"('add_newdocs',)"
p348
sS'global NATIVE_IMPORTER'
p349
S'<built-in function __import__>'
p350
sS'level'
p351
S'1'
sS'globals'
p352
S"{'ModuleDeprecationWarning': None, 'PackageLoader': None, 'VisibleDeprecationWarning': None, '_NoValue': None, '__NUMPY_SETUP__': None, '__builtins__': {'ArithmeticError': <type 'exceptions.ArithmeticError'>, 'AssertionError': <type 'exceptions.AssertionError'>, 'AttributeError': <type 'exceptions.AttributeError'>, 'BaseException': <type 'exceptions.BaseException'>, 'BufferError': <type 'exceptions.BufferError'>, 'BytesWarning': <type 'exceptions.BytesWarning'>, 'DeprecationWarning': <type 'exceptions.DeprecationWarning'>, 'EOFError': <type 'exceptions.EOFError'>, 'Ellipsis': Ellipsis, 'EnvironmentError': <type 'exceptions.EnvironmentError'>, ...}, '__doc__': None, '__file__': None, '__git_revision__': None, '__name__': None, ...}"
p353
sS'locals'
p354
S"{'ModuleDeprecationWarning': None, 'PackageLoader': None, 'VisibleDeprecationWarning': None, '_NoValue': None, '__NUMPY_SETUP__': None, '__builtins__': {'ArithmeticError': <type 'exceptions.ArithmeticError'>, 'AssertionError': <type 'exceptions.AssertionError'>, 'AttributeError': <type 'exceptions.AttributeError'>, 'BaseException': <type 'exceptions.BaseException'>, 'BufferError': <type 'exceptions.BufferError'>, 'BytesWarning': <type 'exceptions.BytesWarning'>, 'DeprecationWarning': <type 'exceptions.DeprecationWarning'>, 'EOFError': <type 'exceptions.EOFError'>, 'Ellipsis': Ellipsis, 'EnvironmentError': <type 'exceptions.EnvironmentError'>, ...}, '__doc__': None, '__file__': None, '__git_revision__': None, '__name__': None, ...}"
p355
sS'name'
p356
S"''"
p357
ssg70
I108
sg71
(dp358
I103
S'            raise  # there is an error in the module'
p359
sI104
S'        finally:'
p360
sI105
S'            if import_tb:'
p361
sI106
S'                import_tb = None'
p362
sI107
S''
sI108
S'    return NATIVE_IMPORTER(name, globals, locals, fromlist, level)'
p363
sI109
S''
sI110
S''
sI111
S'class TrackImporter(object):'
p364
sI112
S'    """'
p365
ssg83
S"(name='', globals={'ModuleDeprecationWarning': None, 'PackageLoader': None, 'VisibleDeprecationWarning': None, '_NoValue': None, '__NUMPY_SETUP__': None, '__builtins__': {'ArithmeticError': <type 'exceptions.ArithmeticError'>, 'AssertionError': <type 'exceptions.AssertionError'>, 'AttributeError': <type 'exceptions.AttributeError'>, 'BaseException': <type 'exceptions.BaseException'>, 'BufferError': <type 'exceptions.BufferError'>, 'BytesWarning': <type 'exceptions.BytesWarning'>, 'DeprecationWarning': <type 'exceptions.DeprecationWarning'>, 'EOFError': <type 'exceptions.EOFError'>, 'Ellipsis': Ellipsis, 'EnvironmentError': <type 'exceptions.EnvironmentError'>, ...}, '__doc__': None, '__file__': None, '__git_revision__': None, '__name__': None, ...}, locals={'ModuleDeprecationWarning': None, 'PackageLoader': None, 'VisibleDeprecationWarning': None, '_NoValue': None, '__NUMPY_SETUP__': None, '__builtins__': {'ArithmeticError': <type 'exceptions.ArithmeticError'>, 'AssertionError': <type 'exceptions.AssertionError'>, 'AttributeError': <type 'exceptions.AttributeError'>, 'BaseException': <type 'exceptions.BaseException'>, 'BufferError': <type 'exceptions.BufferError'>, 'BytesWarning': <type 'exceptions.BytesWarning'>, 'DeprecationWarning': <type 'exceptions.DeprecationWarning'>, 'EOFError': <type 'exceptions.EOFError'>, 'Ellipsis': Ellipsis, 'EnvironmentError': <type 'exceptions.EnvironmentError'>, ...}, '__doc__': None, '__file__': None, '__git_revision__': None, '__name__': None, ...}, fromlist=('add_newdocs',), level=1)"
p366
sg85
g130
sa(dp367
g62
S'C:\\Python27\\lib\\site-packages\\numpy\\add_newdocs.py'
p368
sg64
(dp369
S'numpy'
p370
g91
sS'add_newdoc'
p371
g91
ssg70
I13
sg71
(dp372
I8
S'      core/fromnumeric.py, core/defmatrix.py up-to-date.'
p373
sI9
S''
sI10
S'"""'
p374
sI11
S'from __future__ import division, absolute_import, print_function'
p375
sI12
S''
sI13
S'from numpy.lib import add_newdoc'
p376
sI14
S''
sI15
S'###############################################################################'
p377
sI16
S'#'
sI17
S'# flatiter'
p378
ssg83
S'()'
p379
sg85
g104
sa(dp380
g62
S'C:\\Users\\pseeling\\Documents\\web2py\\web2py\\gluon\\custom_import.py'
p381
sg64
(dp382
S'fromlist'
p383
S"('add_newdoc',)"
p384
sS'global NATIVE_IMPORTER'
p385
S'<built-in function __import__>'
p386
sS'level'
p387
S'0'
sS'globals'
p388
S"{'__builtins__': {'ArithmeticError': <type 'exceptions.ArithmeticError'>, 'AssertionError': <type 'exceptions.AssertionError'>, 'AttributeError': <type 'exceptions.AttributeError'>, 'BaseException': <type 'exceptions.BaseException'>, 'BufferError': <type 'exceptions.BufferError'>, 'BytesWarning': <type 'exceptions.BytesWarning'>, 'DeprecationWarning': <type 'exceptions.DeprecationWarning'>, 'EOFError': <type 'exceptions.EOFError'>, 'Ellipsis': Ellipsis, 'EnvironmentError': <type 'exceptions.EnvironmentError'>, ...}, '__doc__': None, '__file__': None, '__name__': None, '__package__': None, 'absolute_import': None, 'division': None, 'print_function': None}"
p389
sS'locals'
p390
S"{'__builtins__': {'ArithmeticError': <type 'exceptions.ArithmeticError'>, 'AssertionError': <type 'exceptions.AssertionError'>, 'AttributeError': <type 'exceptions.AttributeError'>, 'BaseException': <type 'exceptions.BaseException'>, 'BufferError': <type 'exceptions.BufferError'>, 'BytesWarning': <type 'exceptions.BytesWarning'>, 'DeprecationWarning': <type 'exceptions.DeprecationWarning'>, 'EOFError': <type 'exceptions.EOFError'>, 'Ellipsis': Ellipsis, 'EnvironmentError': <type 'exceptions.EnvironmentError'>, ...}, '__doc__': None, '__file__': None, '__name__': None, '__package__': None, 'absolute_import': None, 'division': None, 'print_function': None}"
p391
sS'oname'
p392
S"'numpy.lib'"
p393
ssg70
I74
sg71
(dp394
I69
S'            and isinstance(globals, dict):'
p395
sI70
S'        import_tb = None'
p396
sI71
S'        try:'
p397
sI72
S'            try:'
p398
sI73
S"                oname = name if not name.startswith('.') else '.'+name"
p399
sI74
S'                return NATIVE_IMPORTER(oname, globals, locals, fromlist, level)'
p400
sI75
S'            except ImportError:'
p401
sI76
S'                items = current.request.folder.split(os.path.sep)'
p402
sI77
S'                if not items[-1]:'
p403
sI78
S'                    items = items[:-1]'
p404
ssg83
S"(name='numpy.lib', globals={'__builtins__': {'ArithmeticError': <type 'exceptions.ArithmeticError'>, 'AssertionError': <type 'exceptions.AssertionError'>, 'AttributeError': <type 'exceptions.AttributeError'>, 'BaseException': <type 'exceptions.BaseException'>, 'BufferError': <type 'exceptions.BufferError'>, 'BytesWarning': <type 'exceptions.BytesWarning'>, 'DeprecationWarning': <type 'exceptions.DeprecationWarning'>, 'EOFError': <type 'exceptions.EOFError'>, 'Ellipsis': Ellipsis, 'EnvironmentError': <type 'exceptions.EnvironmentError'>, ...}, '__doc__': None, '__file__': None, '__name__': None, '__package__': None, 'absolute_import': None, 'division': None, 'print_function': None}, locals={'__builtins__': {'ArithmeticError': <type 'exceptions.ArithmeticError'>, 'AssertionError': <type 'exceptions.AssertionError'>, 'AttributeError': <type 'exceptions.AttributeError'>, 'BaseException': <type 'exceptions.BaseException'>, 'BufferError': <type 'exceptions.BufferError'>, 'BytesWarning': <type 'exceptions.BytesWarning'>, 'DeprecationWarning': <type 'exceptions.DeprecationWarning'>, 'EOFError': <type 'exceptions.EOFError'>, 'Ellipsis': Ellipsis, 'EnvironmentError': <type 'exceptions.EnvironmentError'>, ...}, '__doc__': None, '__file__': None, '__name__': None, '__package__': None, 'absolute_import': None, 'division': None, 'print_function': None}, fromlist=('add_newdoc',), level=0)"
p405
sg85
g130
sa(dp406
g62
S'C:\\Python27\\lib\\site-packages\\numpy\\lib\\__init__.py'
p407
sg64
(dp408
S'type_check'
p409
g91
ssg70
I4
sg71
(dp410
I2
S'from numpy.version import version as __version__'
p411
sI3
S''
sI4
S'from type_check import *'
p412
sI5
S'from index_tricks import *'
p413
sI6
S'from function_base import *'
p414
sI7
S'from shape_base import *'
p415
sI8
S'from stride_tricks import *'
p416
sI9
S'from twodim_base import *'
p417
sI10
S'from ufunclike import *'
p418
sI11
S''
ssg83
S'()'
p419
sg85
g104
sa(dp420
g62
S'C:\\Users\\pseeling\\Documents\\web2py\\web2py\\gluon\\custom_import.py'
p421
sg64
(dp422
S'fromlist'
p423
S"('*',)"
p424
sS'global NATIVE_IMPORTER'
p425
S'<built-in function __import__>'
p426
sS'level'
p427
S'-1'
p428
sS'globals'
p429
S"{'__builtins__': {'ArithmeticError': <type 'exceptions.ArithmeticError'>, 'AssertionError': <type 'exceptions.AssertionError'>, 'AttributeError': <type 'exceptions.AttributeError'>, 'BaseException': <type 'exceptions.BaseException'>, 'BufferError': <type 'exceptions.BufferError'>, 'BytesWarning': <type 'exceptions.BytesWarning'>, 'DeprecationWarning': <type 'exceptions.DeprecationWarning'>, 'EOFError': <type 'exceptions.EOFError'>, 'Ellipsis': Ellipsis, 'EnvironmentError': <type 'exceptions.EnvironmentError'>, ...}, '__doc__': None, '__file__': None, '__name__': None, '__package__': None, '__path__': None, '__version__': None}"
p430
sS'locals'
p431
S"{'__builtins__': {'ArithmeticError': <type 'exceptions.ArithmeticError'>, 'AssertionError': <type 'exceptions.AssertionError'>, 'AttributeError': <type 'exceptions.AttributeError'>, 'BaseException': <type 'exceptions.BaseException'>, 'BufferError': <type 'exceptions.BufferError'>, 'BytesWarning': <type 'exceptions.BytesWarning'>, 'DeprecationWarning': <type 'exceptions.DeprecationWarning'>, 'EOFError': <type 'exceptions.EOFError'>, 'Ellipsis': Ellipsis, 'EnvironmentError': <type 'exceptions.EnvironmentError'>, ...}, '__doc__': None, '__file__': None, '__name__': None, '__package__': None, '__path__': None, '__version__': None}"
p432
sS'oname'
p433
S"'type_check'"
p434
ssg70
I74
sg71
(dp435
I69
S'            and isinstance(globals, dict):'
p436
sI70
S'        import_tb = None'
p437
sI71
S'        try:'
p438
sI72
S'            try:'
p439
sI73
S"                oname = name if not name.startswith('.') else '.'+name"
p440
sI74
S'                return NATIVE_IMPORTER(oname, globals, locals, fromlist, level)'
p441
sI75
S'            except ImportError:'
p442
sI76
S'                items = current.request.folder.split(os.path.sep)'
p443
sI77
S'                if not items[-1]:'
p444
sI78
S'                    items = items[:-1]'
p445
ssg83
S"(name='type_check', globals={'__builtins__': {'ArithmeticError': <type 'exceptions.ArithmeticError'>, 'AssertionError': <type 'exceptions.AssertionError'>, 'AttributeError': <type 'exceptions.AttributeError'>, 'BaseException': <type 'exceptions.BaseException'>, 'BufferError': <type 'exceptions.BufferError'>, 'BytesWarning': <type 'exceptions.BytesWarning'>, 'DeprecationWarning': <type 'exceptions.DeprecationWarning'>, 'EOFError': <type 'exceptions.EOFError'>, 'Ellipsis': Ellipsis, 'EnvironmentError': <type 'exceptions.EnvironmentError'>, ...}, '__doc__': None, '__file__': None, '__name__': None, '__package__': None, '__path__': None, '__version__': None}, locals={'__builtins__': {'ArithmeticError': <type 'exceptions.ArithmeticError'>, 'AssertionError': <type 'exceptions.AssertionError'>, 'AttributeError': <type 'exceptions.AttributeError'>, 'BaseException': <type 'exceptions.BaseException'>, 'BufferError': <type 'exceptions.BufferError'>, 'BytesWarning': <type 'exceptions.BytesWarning'>, 'DeprecationWarning': <type 'exceptions.DeprecationWarning'>, 'EOFError': <type 'exceptions.EOFError'>, 'Ellipsis': Ellipsis, 'EnvironmentError': <type 'exceptions.EnvironmentError'>, ...}, '__doc__': None, '__file__': None, '__name__': None, '__package__': None, '__path__': None, '__version__': None}, fromlist=('*',), level=-1)"
p446
sg85
g130
sa(dp447
g62
S'C:\\Python27\\lib\\site-packages\\numpy\\lib\\type_check.py'
p448
sg64
(dp449
S'_nx'
p450
g91
sS'numpy'
p451
g91
ssg70
I8
sg71
(dp452
I3
S"__all__ = ['iscomplexobj','isrealobj','imag','iscomplex',"
p453
sI4
S"           'isreal','nan_to_num','real','real_if_close',"
p454
sI5
S"           'typename','asfarray','mintypecode','asscalar',"
p455
sI6
S"           'common_type']"
p456
sI7
S''
sI8
S'import numpy.core.numeric as _nx'
p457
sI9
S'from numpy.core.numeric import asarray, asanyarray, array, isnan, \\'
p458
sI10
S'                obj2sctype, zeros'
p459
sI11
S'from ufunclike import isneginf, isposinf'
p460
sI12
S''
ssg83
S'()'
p461
sg85
g104
sasS'pyver'
p462
S'Python 2.7.9: C:\\Users\\pseeling\\Documents\\web2py\\web2py\\web2py.exe (prefix: C:\\Python27)'
p463
sS'session'
p464
g57
(S's6\x01\x00\x00<div><table><tr><td style="font-weight:bold;vertical-align:top;">last_orderby</td><td style="vertical-align:top;">:</td><td><div>None</div></td></tr><tr><td style="font-weight:bold;vertical-align:top;">last_query</td><td style="vertical-align:top;">:</td><td><div>db.faces.id&gt;0</div></td></tr></table></div>'
tRp465
sS'etype'
p466
S"<type 'exceptions.AttributeError'>"
p467
sS'date'
p468
S'Sat Mar 25 17:08:13 2017'
p469
sS'response'
p470
g57
(S's\x88\x17\x00\x00<div><table><tr><td style="font-weight:bold;vertical-align:top;">body</td><td style="vertical-align:top;">:</td><td><div>&lt;cStringIO.StringO object at 0x07ECB8A0&gt;</div></td></tr><tr><td style="font-weight:bold;vertical-align:top;">cookies</td><td style="vertical-align:top;">:</td><td><div><table><tr><td style="font-weight:bold;vertical-align:top;">session_id_face_ar</td><td style="vertical-align:top;">:</td><td><div>127.0.0.1-1271be25-2a80-4f3d-bba3-bc85bc1a4370<table><tr><td style="font-weight:bold;vertical-align:top;">comment</td><td style="vertical-align:top;">:</td><td><div></div></td></tr><tr><td style="font-weight:bold;vertical-align:top;">domain</td><td style="vertical-align:top;">:</td><td><div></div></td></tr><tr><td style="font-weight:bold;vertical-align:top;">expires</td><td style="vertical-align:top;">:</td><td><div></div></td></tr><tr><td style="font-weight:bold;vertical-align:top;">httponly</td><td style="vertical-align:top;">:</td><td><div></div></td></tr><tr><td style="font-weight:bold;vertical-align:top;">max-age</td><td style="vertical-align:top;">:</td><td><div></div></td></tr><tr><td style="font-weight:bold;vertical-align:top;">path</td><td style="vertical-align:top;">:</td><td><div>/</div></td></tr><tr><td style="font-weight:bold;vertical-align:top;">secure</td><td style="vertical-align:top;">:</td><td><div></div></td></tr><tr><td style="font-weight:bold;vertical-align:top;">version</td><td style="vertical-align:top;">:</td><td><div></div></td></tr></table></div></td></tr></table></div></td></tr><tr><td style="font-weight:bold;vertical-align:top;">delimiters</td><td style="vertical-align:top;">:</td><td><div><table><tr><td><div>{{</div></td></tr><tr><td><div>}}</div></td></tr></table></div></td></tr><tr><td style="font-weight:bold;vertical-align:top;">files</td><td style="vertical-align:top;">:</td><td><div><table></table></div></td></tr><tr><td style="font-weight:bold;vertical-align:top;">flash</td><td style="vertical-align:top;">:</td><td><div></div></td></tr><tr><td style="font-weight:bold;vertical-align:top;">form_label_separator</td><td style="vertical-align:top;">:</td><td><div>: </div></td></tr><tr><td style="font-weight:bold;vertical-align:top;">formstyle</td><td style="vertical-align:top;">:</td><td><div>table3cols</div></td></tr><tr><td style="font-weight:bold;vertical-align:top;">generic_patterns</td><td style="vertical-align:top;">:</td><td><div><table><tr><td><div>*</div></td></tr></table></div></td></tr><tr><td style="font-weight:bold;vertical-align:top;">headers</td><td style="vertical-align:top;">:</td><td><div><table><tr><td style="font-weight:bold;vertical-align:top;">X-Powered-By</td><td style="vertical-align:top;">:</td><td><div>web2py</div></td></tr></table></div></td></tr><tr><td style="font-weight:bold;vertical-align:top;">menu</td><td style="vertical-align:top;">:</td><td><div><table></table></div></td></tr><tr><td style="font-weight:bold;vertical-align:top;">meta</td><td style="vertical-align:top;">:</td><td><div><table></table></div></td></tr><tr><td style="font-weight:bold;vertical-align:top;">models_to_run</td><td style="vertical-align:top;">:</td><td><div><table><tr><td><div>^\\w+\\.py$</div></td></tr><tr><td><div>^train/\\w+\\.py$</div></td></tr><tr><td><div>^train/index/\\w+\\.py$</div></td></tr></table></div></td></tr><tr><td style="font-weight:bold;vertical-align:top;">postprocessing</td><td style="vertical-align:top;">:</td><td><div><table></table></div></td></tr><tr><td style="font-weight:bold;vertical-align:top;">session_client</td><td style="vertical-align:top;">:</td><td><div>127.0.0.1</div></td></tr><tr><td style="font-weight:bold;vertical-align:top;">session_cookie_compression_level</td><td style="vertical-align:top;">:</td><td><div>None</div></td></tr><tr><td style="font-weight:bold;vertical-align:top;">session_cookie_expires</td><td style="vertical-align:top;">:</td><td><div>None</div></td></tr><tr><td style="font-weight:bold;vertical-align:top;">session_data_name</td><td style="vertical-align:top;">:</td><td><div>session_data_face_ar</div></td></tr><tr><td style="font-weight:bold;vertical-align:top;">session_file</td><td style="vertical-align:top;">:</td><td><div>&lt;open file &#x27;C:\\\\Users\\\\pseeling\\\\Documents\\\\web2py\\\\web2py\\\\applications\\\\face_ar\\\\sessions\\\\174\\\\090\\\\127.0.0.1-1271be25-2a80-4f3d-bba3-bc85bc1a4370&#x27;, mode &#x27;rb+&#x27; at 0x07E82B20&gt;</div></td></tr><tr><td style="font-weight:bold;vertical-align:top;">session_filename</td><td style="vertical-align:top;">:</td><td><div>C:\\Users\\pseeling\\Documents\\web2py\\web2py\\applications\\face_ar\\sessions\\127.0.0.1-1271be25-2a80-4f3d-bba3-bc85bc1a4370</div></td></tr><tr><td style="font-weight:bold;vertical-align:top;">session_hash</td><td style="vertical-align:top;">:</td><td><div>88f867049d6224910fd45304fff69c90</div></td></tr><tr><td style="font-weight:bold;vertical-align:top;">session_id</td><td style="vertical-align:top;">:</td><td><div>127.0.0.1-1271be25-2a80-4f3d-bba3-bc85bc1a4370</div></td></tr><tr><td style="font-weight:bold;vertical-align:top;">session_id_name</td><td style="vertical-align:top;">:</td><td><div>session_id_face_ar</div></td></tr><tr><td style="font-weight:bold;vertical-align:top;">session_locked</td><td style="vertical-align:top;">:</td><td><div>True</div></td></tr><tr><td style="font-weight:bold;vertical-align:top;">session_masterapp</td><td style="vertical-align:top;">:</td><td><div>face_ar</div></td></tr><tr><td style="font-weight:bold;vertical-align:top;">session_new</td><td style="vertical-align:top;">:</td><td><div>False</div></td></tr><tr><td style="font-weight:bold;vertical-align:top;">session_storage_type</td><td style="vertical-align:top;">:</td><td><div>file</div></td></tr><tr><td style="font-weight:bold;vertical-align:top;">status</td><td style="vertical-align:top;">:</td><td><div>200</div></td></tr><tr><td style="font-weight:bold;vertical-align:top;">view</td><td style="vertical-align:top;">:</td><td><div>train/index.html</div></td></tr></table></div>'
tRp471
sS'locals'
p472
(dp473
S'__all__'
p474
S'None'
p475
sS'__builtins__'
p476
S"{'ArithmeticError': <type 'exceptions.ArithmeticError'>, 'AssertionError': <type 'exceptions.AssertionError'>, 'AttributeError': <type 'exceptions.AttributeError'>, 'BaseException': <type 'exceptions.BaseException'>, 'BufferError': <type 'exceptions.BufferError'>, 'BytesWarning': <type 'exceptions.BytesWarning'>, 'DeprecationWarning': <type 'exceptions.DeprecationWarning'>, 'EOFError': <type 'exceptions.EOFError'>, 'Ellipsis': Ellipsis, 'EnvironmentError': <type 'exceptions.EnvironmentError'>, ...}"
p477
sS'__file__'
p478
S'None'
p479
sS'__package__'
p480
S'None'
p481
sS'__name__'
p482
S'None'
p483
sg48
S'None'
p484
sssS'traceback'
p485
S'Traceback (most recent call last):\n  File "C:\\Users\\pseeling\\Documents\\web2py\\web2py\\gluon\\restricted.py", line 227, in restricted\n    exec ccode in environment\n  File "C:\\Users\\pseeling\\Documents\\web2py\\web2py\\applications\\face_ar\\controllers/train.py", line 2, in <module>\n    import numpy\n  File "C:\\Users\\pseeling\\Documents\\web2py\\web2py\\gluon\\custom_import.py", line 85, in custom_importer\n    modules_prefix, globals, locals, [itemname], level)\n  File "applications\\face_ar\\modules\\numpy\\__init__.py", line 142, in <module>\n    from . import add_newdocs\n  File "C:\\Users\\pseeling\\Documents\\web2py\\web2py\\gluon\\custom_import.py", line 108, in custom_importer\n    return NATIVE_IMPORTER(name, globals, locals, fromlist, level)\n  File "applications\\face_ar\\modules\\numpy\\add_newdocs.py", line 13, in <module>\n    from numpy.lib import add_newdoc\n  File "C:\\Users\\pseeling\\Documents\\web2py\\web2py\\gluon\\custom_import.py", line 95, in custom_importer\n    return base_importer(pname, globals, locals, fromlist, level)\n  File "applications\\face_ar\\modules\\numpy\\lib\\__init__.py", line 4, in <module>\n    from type_check import *\n  File "C:\\Users\\pseeling\\Documents\\web2py\\web2py\\gluon\\custom_import.py", line 74, in custom_importer\n    return NATIVE_IMPORTER(oname, globals, locals, fromlist, level)\n  File "applications\\face_ar\\modules\\numpy\\lib\\type_check.py", line 8, in <module>\n    import numpy.core.numeric as _nx\n  File "C:\\Users\\pseeling\\Documents\\web2py\\web2py\\gluon\\custom_import.py", line 85, in custom_importer\n    modules_prefix, globals, locals, [itemname], level)\n  File "applications\\face_ar\\modules\\numpy\\core\\__init__.py", line 3, in <module>\n    from numpy.version import version as __version__\n  File "C:\\Users\\pseeling\\Documents\\web2py\\web2py\\gluon\\custom_import.py", line 74, in custom_importer\n    return NATIVE_IMPORTER(oname, globals, locals, fromlist, level)\n  File "C:\\Python27\\lib\\site-packages\\numpy\\__init__.py", line 142, in <module>\n    from . import add_newdocs\n  File "C:\\Users\\pseeling\\Documents\\web2py\\web2py\\gluon\\custom_import.py", line 108, in custom_importer\n    return NATIVE_IMPORTER(name, globals, locals, fromlist, level)\n  File "C:\\Python27\\lib\\site-packages\\numpy\\add_newdocs.py", line 13, in <module>\n    from numpy.lib import add_newdoc\n  File "C:\\Users\\pseeling\\Documents\\web2py\\web2py\\gluon\\custom_import.py", line 74, in custom_importer\n    return NATIVE_IMPORTER(oname, globals, locals, fromlist, level)\n  File "C:\\Python27\\lib\\site-packages\\numpy\\lib\\__init__.py", line 4, in <module>\n    from type_check import *\n  File "C:\\Users\\pseeling\\Documents\\web2py\\web2py\\gluon\\custom_import.py", line 74, in custom_importer\n    return NATIVE_IMPORTER(oname, globals, locals, fromlist, level)\n  File "C:\\Python27\\lib\\site-packages\\numpy\\lib\\type_check.py", line 8, in <module>\n    import numpy.core.numeric as _nx\nAttributeError: \'module\' object has no attribute \'core\'\n'
p486
s.